target datalayout = "e-m:e-p270:32:32-p271:32:32-p272:64:64-i64:64-i128:128-f80:128-n8:16:32:64-S128"
target triple = "x86_64-pc-linux-gnu"

%struct._php_core_globals = type { i64, i8, i8, i8, i8, i8, i8, i8, i8, ptr, ptr, i64, i64, i64, ptr, ptr, ptr, ptr, ptr, i8, ptr, ptr, ptr, ptr, i64, ptr, ptr, ptr, ptr, ptr, ptr, ptr, %struct._arg_separators, ptr, %struct._zend_array, i16, i8, i8, %struct._zend_llist, [6 x %struct._zval_struct], i8, i8, i8, i8, i8, ptr, ptr, i64, [8 x i8], i8, i8, i8, i8, i8, i8, i32, i32, ptr, ptr, ptr, ptr, i64, i64, ptr, i64, ptr, ptr, i8, i8, i8, i8, i8, i8, i64, ptr, i64, i64 }
%struct._arg_separators = type { ptr, ptr }
%struct._zend_array = type { %struct._zend_refcounted_h, %union.anon.0, i32, %union.anon.1, i32, i32, i32, i32, i64, ptr }
%struct._zend_refcounted_h = type { i32, %union.anon }
%union.anon = type { i32 }
%union.anon.0 = type { i32 }
%union.anon.1 = type { ptr }
%struct._zend_llist = type { ptr, ptr, i64, i64, ptr, i8, ptr }
%struct._zval_struct = type { %union._zend_value, %union.anon.3, %union.anon.6 }
%union._zend_value = type { i64 }
%union.anon.3 = type { i32 }
%union.anon.6 = type { i32 }

@core_globals = external global %struct._php_core_globals, align 8
@.str = private unnamed_addr constant [7 x i8] c"TMPDIR\00", align 1
@.str.1 = private unnamed_addr constant [5 x i8] c"/tmp\00", align 1

; Function Attrs: nounwind uwtable
define ptr @php_get_temporary_directory() #0 {
  %1 = alloca ptr, align 8
  %2 = alloca ptr, align 8
  %3 = alloca i64, align 8
  %4 = alloca ptr, align 8
  %5 = alloca i64, align 8
  %6 = load ptr, ptr getelementptr inbounds (%struct._php_core_globals, ptr @core_globals, i32 0, i32 59), align 8
  %7 = icmp ne ptr %6, null
  br i1 %7, label %8, label %10

8:                                                ; preds = %0
  %9 = load ptr, ptr getelementptr inbounds (%struct._php_core_globals, ptr @core_globals, i32 0, i32 59), align 8
  store ptr %9, ptr %1, align 8
  br label %88

10:                                               ; preds = %0
  %11 = load ptr, ptr getelementptr inbounds (%struct._php_core_globals, ptr @core_globals, i32 0, i32 22), align 8
  store ptr %11, ptr %2, align 8
  %12 = load ptr, ptr %2, align 8
  %13 = icmp ne ptr %12, null
  br i1 %13, label %14, label %51

14:                                               ; preds = %10
  %15 = load ptr, ptr %2, align 8
  %16 = call i64 @strlen(ptr noundef %15) #7
  store i64 %16, ptr %3, align 8
  %17 = load i64, ptr %3, align 8
  %18 = icmp uge i64 %17, 2
  br i1 %18, label %19, label %33

19:                                               ; preds = %14
  %20 = load ptr, ptr %2, align 8
  %21 = load i64, ptr %3, align 8
  %22 = sub i64 %21, 1
  %23 = getelementptr inbounds i8, ptr %20, i64 %22
  %24 = load i8, ptr %23, align 1
  %25 = sext i8 %24 to i32
  %26 = icmp eq i32 %25, 47
  br i1 %26, label %27, label %33

27:                                               ; preds = %19
  %28 = load ptr, ptr %2, align 8
  %29 = load i64, ptr %3, align 8
  %30 = sub i64 %29, 1
  %31 = call noalias ptr @_estrndup(ptr noundef %28, i64 noundef %30)
  store ptr %31, ptr getelementptr inbounds (%struct._php_core_globals, ptr @core_globals, i32 0, i32 59), align 8
  %32 = load ptr, ptr getelementptr inbounds (%struct._php_core_globals, ptr @core_globals, i32 0, i32 59), align 8
  store ptr %32, ptr %1, align 8
  br label %88

33:                                               ; preds = %19, %14
  %34 = load i64, ptr %3, align 8
  %35 = icmp uge i64 %34, 1
  br i1 %35, label %36, label %49

36:                                               ; preds = %33
  %37 = load ptr, ptr %2, align 8
  %38 = load i64, ptr %3, align 8
  %39 = sub i64 %38, 1
  %40 = getelementptr inbounds i8, ptr %37, i64 %39
  %41 = load i8, ptr %40, align 1
  %42 = sext i8 %41 to i32
  %43 = icmp ne i32 %42, 47
  br i1 %43, label %44, label %49

44:                                               ; preds = %36
  %45 = load ptr, ptr %2, align 8
  %46 = load i64, ptr %3, align 8
  %47 = call noalias ptr @_estrndup(ptr noundef %45, i64 noundef %46)
  store ptr %47, ptr getelementptr inbounds (%struct._php_core_globals, ptr @core_globals, i32 0, i32 59), align 8
  %48 = load ptr, ptr getelementptr inbounds (%struct._php_core_globals, ptr @core_globals, i32 0, i32 59), align 8
  store ptr %48, ptr %1, align 8
  br label %88

49:                                               ; preds = %36, %33
  br label %50

50:                                               ; preds = %49
  br label %51

51:                                               ; preds = %50, %10
  %52 = call ptr @getenv(ptr noundef @.str) #8
  store ptr %52, ptr %4, align 8
  %53 = load ptr, ptr %4, align 8
  %54 = icmp ne ptr %53, null
  br i1 %54, label %55, label %81

55:                                               ; preds = %51
  %56 = load ptr, ptr %4, align 8
  %57 = load i8, ptr %56, align 1
  %58 = sext i8 %57 to i32
  %59 = icmp ne i32 %58, 0
  br i1 %59, label %60, label %81

60:                                               ; preds = %55
  %61 = load ptr, ptr %4, align 8
  %62 = call i64 @strlen(ptr noundef %61) #7
  store i64 %62, ptr %5, align 8
  %63 = load ptr, ptr %4, align 8
  %64 = load i64, ptr %5, align 8
  %65 = sub i64 %64, 1
  %66 = getelementptr inbounds i8, ptr %63, i64 %65
  %67 = load i8, ptr %66, align 1
  %68 = sext i8 %67 to i32
  %69 = icmp eq i32 %68, 47
  br i1 %69, label %70, label %75

70:                                               ; preds = %60
  %71 = load ptr, ptr %4, align 8
  %72 = load i64, ptr %5, align 8
  %73 = sub i64 %72, 1
  %74 = call noalias ptr @_estrndup(ptr noundef %71, i64 noundef %73)
  store ptr %74, ptr getelementptr inbounds (%struct._php_core_globals, ptr @core_globals, i32 0, i32 59), align 8
  br label %79

75:                                               ; preds = %60
  %76 = load ptr, ptr %4, align 8
  %77 = load i64, ptr %5, align 8
  %78 = call noalias ptr @_estrndup(ptr noundef %76, i64 noundef %77)
  store ptr %78, ptr getelementptr inbounds (%struct._php_core_globals, ptr @core_globals, i32 0, i32 59), align 8
  br label %79

79:                                               ; preds = %75, %70
  %80 = load ptr, ptr getelementptr inbounds (%struct._php_core_globals, ptr @core_globals, i32 0, i32 59), align 8
  store ptr %80, ptr %1, align 8
  br label %88

81:                                               ; preds = %55, %51
  br i1 true, label %82, label %85

82:                                               ; preds = %81
  %83 = call noalias ptr @_estrdup(ptr noundef @.str.1)
  store ptr %83, ptr getelementptr inbounds (%struct._php_core_globals, ptr @core_globals, i32 0, i32 59), align 8
  %84 = load ptr, ptr getelementptr inbounds (%struct._php_core_globals, ptr @core_globals, i32 0, i32 59), align 8
  store ptr %84, ptr %1, align 8
  br label %88

85:                                               ; preds = %81
  %86 = call noalias ptr @_estrdup(ptr noundef @.str.1)
  store ptr %86, ptr getelementptr inbounds (%struct._php_core_globals, ptr @core_globals, i32 0, i32 59), align 8
  %87 = load ptr, ptr getelementptr inbounds (%struct._php_core_globals, ptr @core_globals, i32 0, i32 59), align 8
  store ptr %87, ptr %1, align 8
  br label %88

88:                                               ; preds = %85, %82, %79, %44, %27, %8
  %89 = load ptr, ptr %1, align 8
  ret ptr %89
}