; Function Attrs: nounwind uwtable
define ptr @php_get_temporary_directory() local_unnamed_addr #0 {
  %1 = load ptr, ptr getelementptr inbounds (%struct._php_core_globals, ptr @core_globals, i64 0, i32 59), align 8
  %.not = icmp eq ptr %1, null
  br i1 %.not, label %2, label %30

2:                                                ; preds = %0
  %3 = load ptr, ptr getelementptr inbounds (%struct._php_core_globals, ptr @core_globals, i64 0, i32 22), align 8
  %.not25 = icmp eq ptr %3, null
  br i1 %.not25, label %17, label %4

4:                                                ; preds = %2
  %5 = tail call i64 @strlen(ptr noundef nonnull dereferenceable(1) %3) #8
  %6 = icmp ugt i64 %5, 1
  br i1 %6, label %7, label %14

7:                                                ; preds = %4
  %8 = add i64 %5, -1
  %9 = getelementptr inbounds i8, ptr %3, i64 %8
  %10 = load i8, ptr %9, align 1
  %11 = icmp eq i8 %10, 47
  br i1 %11, label %12, label %.thread.thread

12:                                               ; preds = %7
  %13 = tail call noalias ptr @_estrndup(ptr noundef nonnull %3, i64 noundef %8) #9
  br label %.sink.split

14:                                               ; preds = %4
  %.not26 = icmp eq i64 %5, 0
  br i1 %.not26, label %17, label %.thread

.thread:                                          ; preds = %14
  %.phi.trans.insert = getelementptr i8, ptr %3, i64 %5
  %.phi.trans.insert31 = getelementptr i8, ptr %.phi.trans.insert, i64 -1
  %.pre = load i8, ptr %.phi.trans.insert31, align 1
  %15 = icmp eq i8 %.pre, 47
  br i1 %15, label %17, label %.thread.thread

.thread.thread:                                   ; preds = %7, %.thread
  %16 = tail call noalias ptr @_estrndup(ptr noundef nonnull %3, i64 noundef %5) #9
  br label %.sink.split

17:                                               ; preds = %.thread, %14, %2
  %18 = tail call ptr @getenv(ptr noundef nonnull @.str) #9
  %.not28 = icmp eq ptr %18, null
  br i1 %.not28, label %28, label %19

19:                                               ; preds = %17
  %20 = load i8, ptr %18, align 1
  %.not29 = icmp eq i8 %20, 0
  br i1 %.not29, label %28, label %21

21:                                               ; preds = %19
  %22 = tail call i64 @strlen(ptr noundef nonnull dereferenceable(1) %18) #8
  %23 = add i64 %22, -1
  %24 = getelementptr inbounds i8, ptr %18, i64 %23
  %25 = load i8, ptr %24, align 1
  %26 = icmp eq i8 %25, 47
  %. = select i1 %26, i64 %23, i64 %22
  %27 = tail call noalias ptr @_estrndup(ptr noundef nonnull %18, i64 noundef %.) #9
  br label %.sink.split

28:                                               ; preds = %17, %19
  %29 = tail call noalias ptr @_estrdup(ptr noundef nonnull @.str.1) #9
  br label %.sink.split

.sink.split:                                      ; preds = %12, %.thread.thread, %21, %28
  %.sink33 = phi ptr [ %29, %28 ], [ %27, %21 ], [ %16, %.thread.thread ], [ %13, %12 ]
  store ptr %.sink33, ptr getelementptr inbounds (%struct._php_core_globals, ptr @core_globals, i64 0, i32 59), align 8
  br label %30

30:                                               ; preds = %.sink.split, %0
  %.0 = phi ptr [ %1, %0 ], [ %.sink33, %.sink.split ]
  ret ptr %.0
}